target datalayout = "e-m:e-p270:32:32-p271:32:32-p272:64:64-i64:64-i128:128-f80:128-n8:16:32:64-S128"
target triple = "x86_64-pc-linux-gnu"

@stderr = external global ptr, align 8
@.str.9 = private unnamed_addr constant [55 x i8] c"libunwind: _Unwind_GetGR(context=%p, reg=%d) => 0x%lx\0A\00", align 1

; Function Attrs: uwtable
define dso_local i64 @_Unwind_GetGR(ptr noundef %0, i32 noundef %1) #0 {
  %3 = alloca ptr, align 8
  %4 = alloca i32, align 4
  %5 = alloca ptr, align 8
  %6 = alloca i64, align 8
  store ptr %0, ptr %3, align 8, !tbaa !31
  store i32 %1, ptr %4, align 4, !tbaa !15
  call void @llvm.lifetime.start.p0(i64 8, ptr %5) #5
  %7 = load ptr, ptr %3, align 8, !tbaa !31
  store ptr %7, ptr %5, align 8, !tbaa !19
  call void @llvm.lifetime.start.p0(i64 8, ptr %6) #5
  %8 = load ptr, ptr %5, align 8, !tbaa !19
  %9 = load i32, ptr %4, align 4, !tbaa !15
  %10 = call i32 @__unw_get_reg(ptr noundef %8, i32 noundef %9, ptr noundef %6)
  br label %11

11:                                               ; preds = %2
  %12 = call zeroext i1 @logAPIs()
  br i1 %12, label %13, label %24

13:                                               ; preds = %11
  br label %14

14:                                               ; preds = %13
  %15 = load ptr, ptr @stderr, align 8, !tbaa !9
  %16 = load ptr, ptr %3, align 8, !tbaa !31
  %17 = load i32, ptr %4, align 4, !tbaa !15
  %18 = load i64, ptr %6, align 8, !tbaa !25
  %19 = call i32 (ptr, ptr, ...) @fprintf(ptr noundef %15, ptr noundef @.str.9, ptr noundef %16, i32 noundef %17, i64 noundef %18) #5
  %20 = load ptr, ptr @stderr, align 8, !tbaa !9
  %21 = call i32 @fflush(ptr noundef %20)
  br label %22

22:                                               ; preds = %14
  br label %23

23:                                               ; preds = %22
  br label %24

24:                                               ; preds = %23, %11
  br label %25

25:                                               ; preds = %24
  br label %26

26:                                               ; preds = %25
  %27 = load i64, ptr %6, align 8, !tbaa !25
  call void @llvm.lifetime.end.p0(i64 8, ptr %6) #5
  call void @llvm.lifetime.end.p0(i64 8, ptr %5) #5
  ret i64 %27
}