; Function Attrs: uwtable
define dso_local i64 @_Unwind_GetGR(ptr noundef %0, i32 noundef %1) local_unnamed_addr #0 {
  %3 = alloca i64, align 8
  call void @llvm.lifetime.start.p0(i64 8, ptr nonnull %3) #8
  %4 = call i32 @__unw_get_reg(ptr noundef %0, i32 noundef %1, ptr noundef nonnull %3)
  %5 = call zeroext i1 @logAPIs()
  br i1 %5, label %6, label %12

6:                                                ; preds = %2
  %7 = load ptr, ptr @stderr, align 8, !tbaa !4
  %8 = load i64, ptr %3, align 8, !tbaa !13
  %9 = call i32 (ptr, ptr, ...) @fprintf(ptr noundef %7, ptr noundef nonnull @.str.9, ptr noundef %0, i32 noundef %1, i64 noundef %8) #7
  %10 = load ptr, ptr @stderr, align 8, !tbaa !4
  %11 = call i32 @fflush(ptr noundef %10)
  br label %12

12:                                               ; preds = %6, %2
  %13 = load i64, ptr %3, align 8, !tbaa !13
  call void @llvm.lifetime.end.p0(i64 8, ptr nonnull %3) #8
  ret i64 %13
}